; Function Attrs: nounwind uwtable
define dso_local void @XLogArchiveNotifySeg(i64 noundef %0, i32 noundef %1) local_unnamed_addr #0 {
  %3 = alloca [64 x i8], align 16
  call void @llvm.lifetime.start.p0(i64 64, ptr nonnull %3) #11
  %4 = load i32, ptr @wal_segment_size, align 4
  %5 = sext i32 %4 to i64
  %6 = udiv i64 4294967296, %5
  %7 = udiv i64 %0, %6
  %8 = trunc i64 %7 to i32
  %9 = urem i64 %0, %6
  %10 = trunc nuw i64 %9 to i32
  %11 = call i32 (ptr, i64, ptr, ...) @pg_snprintf(ptr noundef nonnull %3, i64 noundef 64, ptr noundef nonnull @.str.18, i32 noundef %1, i32 noundef %8, i32 noundef %10) #11
  call void @XLogArchiveNotify(ptr noundef nonnull %3)
  call void @llvm.lifetime.end.p0(i64 64, ptr nonnull %3) #11
  ret void
}